((iwxpy.utils.puid_map
TwoWayDict
p0
(dp1
S'_reversed'
p2
(dp3
Vlehelper
p4
Vfilehelper
p5
sVc911ccb1
p6
V@92b5bd67f135f4840b8b37b38fd7fc70b6973728eff6d18bac67ee9dc911ccb1
p7
sV197e4f9b
p8
V@@89d882c9537e7a4a674ed4e5ea9c08867a1034c7c2c7eab9b03514f7197e4f9b
p9
sVe914de82
p10
V@73473d4843172a9f8f56b1549f92fb8ca852e106f5cad3eec35fdfbde914de82
p11
sV86df182b
p12
V@cac76f5dd5a2aff27679a9dd0f9321b4a5839d33f924423d3f63f35586df182b
p13
ssS'data'
p14
(dp15
g11
g10
sg7
g6
sg9
g8
sg5
g4
sg13
g12
ssb(iwxpy.utils.puid_map
TwoWayDict
p16
(dp17
g2
(dp18
g12
I1673808216
ssg14
(dp19
I1673808216
g12
ssb(iwxpy.utils.puid_map
TwoWayDict
p20
(dp21
g2
(dp22
g6
V\u767d\u5201\u5201
p23
sg10
V\u6c64\u5b87\u661f
p24
ssg14
(dp25
g23
g6
sg24
g10
ssb(iwxpy.utils.puid_map
TwoWayDict
p26
(dp27
g2
(dp28
g4
(V\u6587\u4ef6\u4f20\u8f93\u52a9\u624b
p29
NNNtp30
sg6
(V\u767d\u7fbd
p31
I1
V\u5409\u6797
p32
V\u5409\u6797
p33
tp34
sg8
(V\u3010\u8fdb\u7fa4\u6539\u5907\u6ce8\u3011\u767d\u718a\u8001\u53f8\u673a\u30103\u7fa4\u3011
p35
NNNtp36
sg10
(V\u9ece\u7d2b
p37
I0
V
p38
g38
tp39
sg12
(Vjedel
p40
I1
S''
p41
g41
tp42
ssg14
(dp43
g30
g4
sg36
g8
sg39
g10
sg34
g6
sg42
g12
ssbtp44
.